; Function Attrs: mustprogress nofree norecurse nosync nounwind willreturn memory(read, inaccessiblemem: none) uwtable
define i32 @Pa_GetDefaultOutputDevice() local_unnamed_addr #9 {
  %1 = load i32, ptr @initializationCount_, align 4
  %.not.i = icmp eq i32 %1, 0
  br i1 %.not.i, label %Pa_GetDefaultHostApi.exit.thread, label %2

2:                                                ; preds = %0
  %3 = load i32, ptr @defaultHostApiIndex_, align 4
  %4 = icmp sgt i32 %3, -1
  %5 = load i32, ptr @hostApisCount_, align 4
  %.not4.i = icmp slt i32 %3, %5
  %or.cond.i = select i1 %4, i1 %.not4.i, i1 false
  br i1 %or.cond.i, label %Pa_GetDefaultHostApi.exit, label %Pa_GetDefaultHostApi.exit.thread

Pa_GetDefaultHostApi.exit:                        ; preds = %2
  %6 = load ptr, ptr @hostApis_, align 8
  %7 = zext nneg i32 %3 to i64
  %8 = getelementptr inbounds ptr, ptr %6, i64 %7
  %9 = load ptr, ptr %8, align 8
  %10 = getelementptr inbounds i8, ptr %9, i64 32
  %11 = load i32, ptr %10, align 8
  br label %Pa_GetDefaultHostApi.exit.thread

Pa_GetDefaultHostApi.exit.thread:                 ; preds = %2, %0, %Pa_GetDefaultHostApi.exit
  %.0 = phi i32 [ %11, %Pa_GetDefaultHostApi.exit ], [ -1, %0 ], [ -1, %2 ]
  ret i32 %.0
}